target datalayout = "e-m:e-p270:32:32-p271:32:32-p272:64:64-i64:64-i128:128-f80:128-n8:16:32:64-S128"
target triple = "x86_64-pc-linux-gnu"

@.str = private unnamed_addr constant [35 x i8] c"../openssl/crypto/ts/ts_rsp_sign.c\00", align 1
@__func__.def_serial_cb = private unnamed_addr constant [14 x i8] c"def_serial_cb\00", align 1
@.str.3 = private unnamed_addr constant [39 x i8] c"Error during serial number generation.\00", align 1

; Function Attrs: nounwind uwtable
define internal ptr @def_serial_cb(ptr noundef %0, ptr noundef %1) #0 {
  %3 = alloca ptr, align 8
  %4 = alloca ptr, align 8
  %5 = alloca ptr, align 8
  %6 = alloca ptr, align 8
  %7 = alloca i32, align 4
  store ptr %0, ptr %4, align 8, !tbaa !10
  store ptr %1, ptr %5, align 8, !tbaa !30
  call void @llvm.lifetime.start.p0(i64 8, ptr %6) #7
  %8 = call ptr @ASN1_INTEGER_new()
  store ptr %8, ptr %6, align 8, !tbaa !31
  %9 = load ptr, ptr %6, align 8, !tbaa !31
  %10 = icmp eq ptr %9, null
  br i1 %10, label %11, label %12

11:                                               ; preds = %2
  br label %19

12:                                               ; preds = %2
  %13 = load ptr, ptr %6, align 8, !tbaa !31
  %14 = call i32 @ASN1_INTEGER_set(ptr noundef %13, i64 noundef 1)
  %15 = icmp ne i32 %14, 0
  br i1 %15, label %17, label %16

16:                                               ; preds = %12
  br label %19

17:                                               ; preds = %12
  %18 = load ptr, ptr %6, align 8, !tbaa !31
  store ptr %18, ptr %3, align 8
  store i32 1, ptr %7, align 4
  br label %23

19:                                               ; preds = %16, %11
  call void @ERR_new()
  call void @ERR_set_debug(ptr noundef @.str, i32 noundef 55, ptr noundef @__func__.def_serial_cb)
  call void (i32, i32, ptr, ...) @ERR_set_error(i32 noundef 47, i32 noundef 524301, ptr noundef null)
  %20 = load ptr, ptr %4, align 8, !tbaa !10
  %21 = call i32 @TS_RESP_CTX_set_status_info(ptr noundef %20, i32 noundef 2, ptr noundef @.str.3)
  %22 = load ptr, ptr %6, align 8, !tbaa !31
  call void @ASN1_INTEGER_free(ptr noundef %22)
  store ptr null, ptr %3, align 8
  store i32 1, ptr %7, align 4
  br label %23

23:                                               ; preds = %19, %17
  call void @llvm.lifetime.end.p0(i64 8, ptr %6) #7
  %24 = load ptr, ptr %3, align 8
  ret ptr %24
}