; Function Attrs: nounwind uwtable
define internal ptr @def_serial_cb(ptr noundef readonly captures(none) %0, ptr readnone captures(none) %1) #0 {
  %3 = tail call ptr @ASN1_INTEGER_new() #9
  %4 = icmp eq ptr %3, null
  br i1 %4, label %7, label %5

5:                                                ; preds = %2
  %6 = tail call i32 @ASN1_INTEGER_set(ptr noundef nonnull %3, i64 noundef 1) #9
  %.not = icmp eq i32 %6, 0
  br i1 %.not, label %7, label %9

7:                                                ; preds = %5, %2
  tail call void @ERR_new() #9
  tail call void @ERR_set_debug(ptr noundef nonnull @.str, i32 noundef 55, ptr noundef nonnull @__func__.def_serial_cb) #9
  tail call void (i32, i32, ptr, ...) @ERR_set_error(i32 noundef 47, i32 noundef 524301, ptr noundef null) #9
  %8 = tail call i32 @TS_RESP_CTX_set_status_info(ptr noundef %0, i32 noundef 2, ptr noundef nonnull @.str.3)
  tail call void @ASN1_INTEGER_free(ptr noundef %3) #9
  br label %9

9:                                                ; preds = %5, %7
  %.0 = phi ptr [ null, %7 ], [ %3, %5 ]
  ret ptr %.0
}